target datalayout = "e-m:e-p270:32:32-p271:32:32-p272:64:64-i64:64-i128:128-f80:128-n8:16:32:64-S128"
target triple = "x86_64-pc-linux-gnu"

%struct.jit_State = type { %struct.GCtrace, ptr, ptr, ptr, ptr, ptr, ptr, i32, i32, i32, i8, i8, %struct.IRType1, i8, %struct.FoldState, ptr, i32, i32, i32, i32, i32, i32, i32, [1 x i32], [5 x %union.TValue], [3 x %union.TValue], ptr, i32, i32, i32, i32, ptr, ptr, i32, i32, i8, ptr, i32, i32, i16, [101 x i16], [258 x i32], [15 x i32], [16 x ptr], [64 x %struct.HotPenalty], i32, [16 x %struct.BPropEntry], i32, %struct.ScEvEntry, ptr, i32, i32, i32, ptr, i32, i32, ptr, ptr, ptr, i64, i64, %union.TValue, ptr, i32, i32 }
%struct.GCtrace = type { %struct.GCRef, i8, i8, i16, i32, i32, %struct.GCRef, ptr, i32, i32, ptr, ptr, %struct.GCRef, %struct.MRef, i32, i32, ptr, i32, i16, i16, i16, i16, i16, i16, i16, i8, i8, i8, i8 }
%struct.GCRef = type { i64 }
%struct.MRef = type { i64 }
%struct.IRType1 = type { i8 }
%struct.FoldState = type { %union.IRIns, [2 x %union.IRIns], [2 x %union.IRIns] }
%union.IRIns = type { %struct.GCRef }
%struct.HotPenalty = type { %struct.MRef, i16, i16 }
%struct.BPropEntry = type { i16, i16, i32 }
%struct.ScEvEntry = type { %struct.MRef, i16, i16, i16, i16, %struct.IRType1, i8 }
%union.TValue = type { i64 }
%struct.RecordFFData = type { ptr, i64, i32 }
%struct.GG_State = type { %struct.lua_State, %struct.global_State, %struct.jit_State, [64 x i16], [243 x ptr], [57 x i32] }
%struct.lua_State = type { %struct.GCRef, i8, i8, i8, i8, %struct.MRef, %struct.GCRef, ptr, ptr, %struct.MRef, %struct.MRef, %struct.GCRef, %struct.GCRef, ptr, i32 }
%struct.global_State = type { ptr, ptr, %struct.GCState, %struct.GCstr, i8, i8, i8, i8, %struct.StrInternState, i32, %struct.GCRef, %struct.SBuf, %union.TValue, %union.TValue, %struct.Node, %union.TValue, %struct.GCupval, i32, i32, ptr, ptr, ptr, i32, i32, %struct.GCRef, %struct.MRef, %struct.MRef, %struct.PRNGState, [39 x %struct.GCRef] }
%struct.GCState = type { i64, i64, i8, i8, i8, i8, i32, %struct.GCRef, %struct.MRef, %struct.GCRef, %struct.GCRef, %struct.GCRef, %struct.GCRef, i64, i64, i32, i32, %struct.MRef }
%struct.GCstr = type { %struct.GCRef, i8, i8, i8, i8, i32, i32, i32 }
%struct.StrInternState = type { ptr, i32, i32, i32, i8, i8, i8, i8, i64 }
%struct.SBuf = type { ptr, ptr, ptr, %struct.MRef }
%struct.Node = type { %union.TValue, %union.TValue, %struct.MRef }
%struct.GCupval = type { %struct.GCRef, i8, i8, i8, i8, %union.anon, %struct.MRef, i32 }
%union.anon = type { %struct.anon.3 }
%struct.anon.3 = type { %struct.GCRef, %struct.GCRef }
%struct.PRNGState = type { [4 x i64] }
%struct.GCcdata = type { %struct.GCRef, i8, i8, i16 }
%struct.CType = type { i32, i32, i16, i16, %struct.GCRef }
%struct.CTState = type { ptr, i32, i32, ptr, ptr, ptr, %struct.CCallback, [128 x i16] }
%struct.CCallback = type { [8 x %union.FPRCBArg], [8 x i64], ptr, ptr, ptr, i32, i32, i32 }
%union.FPRCBArg = type { double }

; Function Attrs: alwaysinline nounwind uwtable
define internal i32 @ctype_check(ptr noundef %0, i32 noundef %1) #2 {
  %3 = alloca ptr, align 8
  %4 = alloca i32, align 4
  store ptr %0, ptr %3, align 8, !tbaa !49
  store i32 %1, ptr %4, align 4, !tbaa !31
  %5 = load i32, ptr %4, align 4, !tbaa !31
  ret i32 %5
}

; Function Attrs: alwaysinline nounwind uwtable
define internal ptr @ctype_child(ptr noundef %0, ptr noundef %1) #2 {
  %3 = alloca ptr, align 8
  %4 = alloca ptr, align 8
  store ptr %0, ptr %3, align 8, !tbaa !49
  store ptr %1, ptr %4, align 8, !tbaa !53
  %5 = load ptr, ptr %3, align 8, !tbaa !49
  %6 = load ptr, ptr %4, align 8, !tbaa !53
  %7 = getelementptr inbounds nuw %struct.CType, ptr %6, i32 0, i32 0
  %8 = load i32, ptr %7, align 8, !tbaa !55
  %9 = and i32 %8, 65535
  %10 = call ptr @ctype_get(ptr noundef %5, i32 noundef %9)
  ret ptr %10
}

; Function Attrs: nounwind uwtable
define internal i32 @crec_toint(ptr noundef %0, ptr noundef %1, i32 noundef %2, ptr noundef %3) #0 {
  %5 = alloca ptr, align 8
  %6 = alloca ptr, align 8
  %7 = alloca i32, align 4
  %8 = alloca ptr, align 8
  store ptr %0, ptr %5, align 8, !tbaa !4
  store ptr %1, ptr %6, align 8, !tbaa !49
  store i32 %2, ptr %7, align 4, !tbaa !31
  store ptr %3, ptr %8, align 8, !tbaa !67
  %9 = load ptr, ptr %5, align 8, !tbaa !4
  %10 = load ptr, ptr %6, align 8, !tbaa !49
  %11 = call ptr @ctype_get(ptr noundef %10, i32 noundef 9)
  %12 = load i32, ptr %7, align 4, !tbaa !31
  %13 = load ptr, ptr %8, align 8, !tbaa !67
  %14 = call i32 @crec_ct_tv(ptr noundef %9, ptr noundef %11, i32 noundef 0, i32 noundef %12, ptr noundef %13)
  ret i32 %14
}

; Function Attrs: alwaysinline nounwind uwtable
define internal ptr @ctype_get(ptr noundef %0, i32 noundef %1) #2 {
  %3 = alloca ptr, align 8
  %4 = alloca i32, align 4
  store ptr %0, ptr %3, align 8, !tbaa !49
  store i32 %1, ptr %4, align 4, !tbaa !31
  %5 = load ptr, ptr %3, align 8, !tbaa !49
  %6 = getelementptr inbounds nuw %struct.CTState, ptr %5, i32 0, i32 0
  %7 = load ptr, ptr %6, align 8, !tbaa !79
  %8 = load ptr, ptr %3, align 8, !tbaa !49
  %9 = load i32, ptr %4, align 4, !tbaa !31
  %10 = call i32 @ctype_check(ptr noundef %8, i32 noundef %9)
  %11 = zext i32 %10 to i64
  %12 = getelementptr inbounds nuw %struct.CType, ptr %7, i64 %11
  ret ptr %12
}

; Function Attrs: alwaysinline nounwind uwtable
define internal ptr @ctype_rawchild(ptr noundef %0, ptr noundef %1) #2 {
  %3 = alloca ptr, align 8
  %4 = alloca ptr, align 8
  store ptr %0, ptr %3, align 8, !tbaa !49
  store ptr %1, ptr %4, align 8, !tbaa !53
  br label %5

5:                                                ; preds = %9, %2
  %6 = load ptr, ptr %3, align 8, !tbaa !49
  %7 = load ptr, ptr %4, align 8, !tbaa !53
  %8 = call ptr @ctype_child(ptr noundef %6, ptr noundef %7)
  store ptr %8, ptr %4, align 8, !tbaa !53
  br label %9

9:                                                ; preds = %5
  %10 = load ptr, ptr %4, align 8, !tbaa !53
  %11 = getelementptr inbounds nuw %struct.CType, ptr %10, i32 0, i32 0
  %12 = load i32, ptr %11, align 8, !tbaa !55
  %13 = lshr i32 %12, 28
  %14 = icmp eq i32 %13, 8
  br i1 %14, label %5, label %15, !llvm.loop !69

15:                                               ; preds = %9
  %16 = load ptr, ptr %4, align 8, !tbaa !53
  ret ptr %16
}

; Function Attrs: alwaysinline nounwind uwtable
define internal ptr @ctype_raw(ptr noundef %0, i32 noundef %1) #2 {
  %3 = alloca ptr, align 8
  %4 = alloca i32, align 4
  %5 = alloca ptr, align 8
  store ptr %0, ptr %3, align 8, !tbaa !49
  store i32 %1, ptr %4, align 4, !tbaa !31
  call void @llvm.lifetime.start.p0(i64 8, ptr %5) #7
  %6 = load ptr, ptr %3, align 8, !tbaa !49
  %7 = load i32, ptr %4, align 4, !tbaa !31
  %8 = call ptr @ctype_get(ptr noundef %6, i32 noundef %7)
  store ptr %8, ptr %5, align 8, !tbaa !53
  br label %9

9:                                                ; preds = %15, %2
  %10 = load ptr, ptr %5, align 8, !tbaa !53
  %11 = getelementptr inbounds nuw %struct.CType, ptr %10, i32 0, i32 0
  %12 = load i32, ptr %11, align 8, !tbaa !55
  %13 = lshr i32 %12, 28
  %14 = icmp eq i32 %13, 8
  br i1 %14, label %15, label %19

15:                                               ; preds = %9
  %16 = load ptr, ptr %3, align 8, !tbaa !49
  %17 = load ptr, ptr %5, align 8, !tbaa !53
  %18 = call ptr @ctype_child(ptr noundef %16, ptr noundef %17)
  store ptr %18, ptr %5, align 8, !tbaa !53
  br label %9, !llvm.loop !68

19:                                               ; preds = %9
  %20 = load ptr, ptr %5, align 8, !tbaa !53
  call void @llvm.lifetime.end.p0(i64 8, ptr %5) #7
  ret ptr %20
}

; Function Attrs: nounwind uwtable
define hidden void @recff_ffi_fill(ptr noundef %0, ptr noundef %1) #0 {
  %3 = alloca ptr, align 8
  %4 = alloca ptr, align 8
  %5 = alloca ptr, align 8
  %6 = alloca i32, align 4
  %7 = alloca i32, align 4
  %8 = alloca i32, align 4
  %9 = alloca i32, align 4
  %10 = alloca i32, align 4
  %11 = alloca ptr, align 8
  store ptr %0, ptr %3, align 8, !tbaa !4
  store ptr %1, ptr %4, align 8, !tbaa !9
  call void @llvm.lifetime.start.p0(i64 8, ptr %5) #7
  %12 = load ptr, ptr %3, align 8, !tbaa !4
  %13 = getelementptr inbounds i8, ptr %12, i64 -832
  %14 = getelementptr inbounds nuw %struct.GG_State, ptr %13, i32 0, i32 1
  %15 = getelementptr inbounds nuw %struct.global_State, ptr %14, i32 0, i32 26
  %16 = getelementptr inbounds nuw %struct.MRef, ptr %15, i32 0, i32 0
  %17 = load i64, ptr %16, align 8, !tbaa !38
  %18 = inttoptr i64 %17 to ptr
  store ptr %18, ptr %5, align 8, !tbaa !49
  call void @llvm.lifetime.start.p0(i64 4, ptr %6) #7
  %19 = load ptr, ptr %3, align 8, !tbaa !4
  %20 = getelementptr inbounds nuw %struct.jit_State, ptr %19, i32 0, i32 6
  %21 = load ptr, ptr %20, align 8, !tbaa !11
  %22 = getelementptr inbounds i32, ptr %21, i64 0
  %23 = load i32, ptr %22, align 4, !tbaa !31
  store i32 %23, ptr %6, align 4, !tbaa !31
  call void @llvm.lifetime.start.p0(i64 4, ptr %7) #7
  %24 = load ptr, ptr %3, align 8, !tbaa !4
  %25 = getelementptr inbounds nuw %struct.jit_State, ptr %24, i32 0, i32 6
  %26 = load ptr, ptr %25, align 8, !tbaa !11
  %27 = getelementptr inbounds i32, ptr %26, i64 1
  %28 = load i32, ptr %27, align 4, !tbaa !31
  store i32 %28, ptr %7, align 4, !tbaa !31
  call void @llvm.lifetime.start.p0(i64 4, ptr %8) #7
  %29 = load ptr, ptr %3, align 8, !tbaa !4
  %30 = getelementptr inbounds nuw %struct.jit_State, ptr %29, i32 0, i32 6
  %31 = load ptr, ptr %30, align 8, !tbaa !11
  %32 = getelementptr inbounds i32, ptr %31, i64 2
  %33 = load i32, ptr %32, align 4, !tbaa !31
  store i32 %33, ptr %8, align 4, !tbaa !31
  %34 = load i32, ptr %6, align 4, !tbaa !31
  %35 = icmp ne i32 %34, 0
  br i1 %35, label %36, label %126

36:                                               ; preds = %2
  %37 = load i32, ptr %7, align 4, !tbaa !31
  %38 = icmp ne i32 %37, 0
  br i1 %38, label %39, label %126

39:                                               ; preds = %36
  call void @llvm.lifetime.start.p0(i64 4, ptr %9) #7
  store i32 1, ptr %9, align 4, !tbaa !31
  %40 = load ptr, ptr %4, align 8, !tbaa !9
  %41 = getelementptr inbounds nuw %struct.RecordFFData, ptr %40, i32 0, i32 0
  %42 = load ptr, ptr %41, align 8, !tbaa !33
  %43 = getelementptr inbounds %union.TValue, ptr %42, i64 0
  %44 = load i64, ptr %43, align 8, !tbaa !58
  %45 = ashr i64 %44, 47
  %46 = trunc i64 %45 to i32
  %47 = icmp eq i32 %46, -11
  br i1 %47, label %48, label %86

48:                                               ; preds = %39
  call void @llvm.lifetime.start.p0(i64 4, ptr %10) #7
  call void @llvm.lifetime.start.p0(i64 8, ptr %11) #7
  %49 = load ptr, ptr %5, align 8, !tbaa !49
  %50 = load ptr, ptr %4, align 8, !tbaa !9
  %51 = getelementptr inbounds nuw %struct.RecordFFData, ptr %50, i32 0, i32 0
  %52 = load ptr, ptr %51, align 8, !tbaa !33
  %53 = getelementptr inbounds %union.TValue, ptr %52, i64 0
  %54 = getelementptr inbounds nuw %struct.GCRef, ptr %53, i32 0, i32 0
  %55 = load i64, ptr %54, align 8, !tbaa !58
  %56 = and i64 %55, 140737488355327
  %57 = inttoptr i64 %56 to ptr
  %58 = getelementptr inbounds nuw %struct.GCcdata, ptr %57, i32 0, i32 3
  %59 = load i16, ptr %58, align 2, !tbaa !58
  %60 = zext i16 %59 to i32
  %61 = call ptr @ctype_raw(ptr noundef %49, i32 noundef %60)
  store ptr %61, ptr %11, align 8, !tbaa !53
  %62 = load ptr, ptr %11, align 8, !tbaa !53
  %63 = getelementptr inbounds nuw %struct.CType, ptr %62, i32 0, i32 0
  %64 = load i32, ptr %63, align 8, !tbaa !55
  %65 = lshr i32 %64, 28
  %66 = icmp eq i32 %65, 2
  br i1 %66, label %67, label %71

67:                                               ; preds = %48
  %68 = load ptr, ptr %5, align 8, !tbaa !49
  %69 = load ptr, ptr %11, align 8, !tbaa !53
  %70 = call ptr @ctype_rawchild(ptr noundef %68, ptr noundef %69)
  store ptr %70, ptr %11, align 8, !tbaa !53
  br label %71

71:                                               ; preds = %67, %48
  %72 = load ptr, ptr %5, align 8, !tbaa !49
  %73 = load ptr, ptr %11, align 8, !tbaa !53
  %74 = load ptr, ptr %5, align 8, !tbaa !49
  %75 = getelementptr inbounds nuw %struct.CTState, ptr %74, i32 0, i32 0
  %76 = load ptr, ptr %75, align 8, !tbaa !79
  %77 = ptrtoint ptr %73 to i64
  %78 = ptrtoint ptr %76 to i64
  %79 = sub i64 %77, %78
  %80 = sdiv exact i64 %79, 24
  %81 = trunc i64 %80 to i32
  %82 = call i32 @lj_ctype_info(ptr noundef %72, i32 noundef %81, ptr noundef %10)
  %83 = lshr i32 %82, 16
  %84 = and i32 %83, 15
  %85 = shl i32 1, %84
  store i32 %85, ptr %9, align 4, !tbaa !31
  call void @llvm.lifetime.end.p0(i64 8, ptr %11) #7
  call void @llvm.lifetime.end.p0(i64 4, ptr %10) #7
  br label %86

86:                                               ; preds = %71, %39
  %87 = load ptr, ptr %3, align 8, !tbaa !4
  %88 = load ptr, ptr %5, align 8, !tbaa !49
  %89 = call ptr @ctype_get(ptr noundef %88, i32 noundef 17)
  %90 = load i32, ptr %6, align 4, !tbaa !31
  %91 = load ptr, ptr %4, align 8, !tbaa !9
  %92 = getelementptr inbounds nuw %struct.RecordFFData, ptr %91, i32 0, i32 0
  %93 = load ptr, ptr %92, align 8, !tbaa !33
  %94 = getelementptr inbounds %union.TValue, ptr %93, i64 0
  %95 = call i32 @crec_ct_tv(ptr noundef %87, ptr noundef %89, i32 noundef 0, i32 noundef %90, ptr noundef %94)
  store i32 %95, ptr %6, align 4, !tbaa !31
  %96 = load ptr, ptr %3, align 8, !tbaa !4
  %97 = load ptr, ptr %5, align 8, !tbaa !49
  %98 = load i32, ptr %7, align 4, !tbaa !31
  %99 = load ptr, ptr %4, align 8, !tbaa !9
  %100 = getelementptr inbounds nuw %struct.RecordFFData, ptr %99, i32 0, i32 0
  %101 = load ptr, ptr %100, align 8, !tbaa !33
  %102 = getelementptr inbounds %union.TValue, ptr %101, i64 1
  %103 = call i32 @crec_toint(ptr noundef %96, ptr noundef %97, i32 noundef %98, ptr noundef %102)
  store i32 %103, ptr %7, align 4, !tbaa !31
  %104 = load i32, ptr %8, align 4, !tbaa !31
  %105 = icmp ne i32 %104, 0
  br i1 %105, label %106, label %115

106:                                              ; preds = %86
  %107 = load ptr, ptr %3, align 8, !tbaa !4
  %108 = load ptr, ptr %5, align 8, !tbaa !49
  %109 = load i32, ptr %8, align 4, !tbaa !31
  %110 = load ptr, ptr %4, align 8, !tbaa !9
  %111 = getelementptr inbounds nuw %struct.RecordFFData, ptr %110, i32 0, i32 0
  %112 = load ptr, ptr %111, align 8, !tbaa !33
  %113 = getelementptr inbounds %union.TValue, ptr %112, i64 2
  %114 = call i32 @crec_toint(ptr noundef %107, ptr noundef %108, i32 noundef %109, ptr noundef %113)
  store i32 %114, ptr %8, align 4, !tbaa !31
  br label %118

115:                                              ; preds = %86
  %116 = load ptr, ptr %3, align 8, !tbaa !4
  %117 = call i32 @lj_ir_kint(ptr noundef %116, i32 noundef 0)
  store i32 %117, ptr %8, align 4, !tbaa !31
  br label %118

118:                                              ; preds = %115, %106
  %119 = load ptr, ptr %4, align 8, !tbaa !9
  %120 = getelementptr inbounds nuw %struct.RecordFFData, ptr %119, i32 0, i32 1
  store i64 0, ptr %120, align 8, !tbaa !65
  %121 = load ptr, ptr %3, align 8, !tbaa !4
  %122 = load i32, ptr %6, align 4, !tbaa !31
  %123 = load i32, ptr %7, align 4, !tbaa !31
  %124 = load i32, ptr %8, align 4, !tbaa !31
  %125 = load i32, ptr %9, align 4, !tbaa !31
  call void @crec_fill(ptr noundef %121, i32 noundef %122, i32 noundef %123, i32 noundef %124, i32 noundef %125)
  call void @llvm.lifetime.end.p0(i64 4, ptr %9) #7
  br label %126

126:                                              ; preds = %118, %36, %2
  call void @llvm.lifetime.end.p0(i64 4, ptr %8) #7
  call void @llvm.lifetime.end.p0(i64 4, ptr %7) #7
  call void @llvm.lifetime.end.p0(i64 4, ptr %6) #7
  call void @llvm.lifetime.end.p0(i64 8, ptr %5) #7
  ret void
}