; Function Attrs: nounwind uwtable
define hidden void @recff_ffi_fill(ptr noundef %0, ptr noundef captures(none) %1) local_unnamed_addr #0 {
  %3 = alloca i32, align 4
  %4 = getelementptr inbounds i8, ptr %0, i64 -352
  %5 = load i64, ptr %4, align 8, !tbaa !34
  %6 = inttoptr i64 %5 to ptr
  %7 = getelementptr inbounds nuw i8, ptr %0, i64 160
  %8 = load ptr, ptr %7, align 8, !tbaa !4
  %9 = load i32, ptr %8, align 4, !tbaa !27
  %10 = getelementptr inbounds nuw i8, ptr %8, i64 4
  %11 = load i32, ptr %10, align 4, !tbaa !27
  %12 = getelementptr inbounds nuw i8, ptr %8, i64 8
  %13 = load i32, ptr %12, align 4, !tbaa !27
  %14 = icmp ne i32 %9, 0
  %15 = icmp ne i32 %11, 0
  %or.cond = select i1 %14, i1 %15, i1 false
  br i1 %or.cond, label %16, label %63

16:                                               ; preds = %2
  %17 = load ptr, ptr %1, align 8, !tbaa !28
  %18 = load i64, ptr %17, align 8, !tbaa !31
  %.mask = and i64 %18, -140737488355328
  %19 = icmp eq i64 %.mask, -1548112371908608
  br i1 %19, label %20, label %45

20:                                               ; preds = %16
  call void @llvm.lifetime.start.p0(i64 4, ptr nonnull %3) #8
  %21 = and i64 %18, 140737488355327
  %22 = inttoptr i64 %21 to ptr
  %23 = getelementptr inbounds nuw i8, ptr %22, i64 10
  %24 = load i16, ptr %23, align 2, !tbaa !31
  %25 = load ptr, ptr %6, align 8, !tbaa !45
  %26 = zext i16 %24 to i64
  br label %27

27:                                               ; preds = %27, %20
  %.pn = phi i64 [ %26, %20 ], [ %31, %27 ]
  %.0.i = getelementptr inbounds nuw %struct.CType, ptr %25, i64 %.pn
  %28 = load i32, ptr %.0.i, align 8, !tbaa !53
  %29 = icmp slt i32 %28, -1879048192
  %30 = and i32 %28, 65535
  %31 = zext nneg i32 %30 to i64
  br i1 %29, label %27, label %ctype_raw.exit, !llvm.loop !55

ctype_raw.exit:                                   ; preds = %27
  %.mask40 = and i32 %28, -268435456
  %32 = icmp eq i32 %.mask40, 536870912
  br i1 %32, label %.preheader, label %ctype_rawchild.exit

.preheader:                                       ; preds = %ctype_raw.exit, %.preheader
  %33 = phi i32 [ %37, %.preheader ], [ %28, %ctype_raw.exit ]
  %34 = and i32 %33, 65535
  %35 = zext nneg i32 %34 to i64
  %36 = getelementptr inbounds nuw %struct.CType, ptr %25, i64 %35
  %37 = load i32, ptr %36, align 8, !tbaa !53
  %38 = icmp slt i32 %37, -1879048192
  br i1 %38, label %.preheader, label %ctype_rawchild.exit, !llvm.loop !58

ctype_rawchild.exit:                              ; preds = %.preheader, %ctype_raw.exit
  %.0 = phi ptr [ %.0.i, %ctype_raw.exit ], [ %36, %.preheader ]
  %39 = ptrtoint ptr %.0 to i64
  %40 = ptrtoint ptr %25 to i64
  %41 = sub i64 %39, %40
  %42 = sdiv exact i64 %41, 24
  %43 = trunc i64 %42 to i32
  %44 = call i32 @lj_ctype_info(ptr noundef nonnull %6, i32 noundef %43, ptr noundef nonnull %3) #8
  call void @llvm.lifetime.end.p0(i64 4, ptr nonnull %3) #8
  %.pre = load ptr, ptr %1, align 8, !tbaa !28
  br label %45

45:                                               ; preds = %ctype_rawchild.exit, %16
  %46 = phi ptr [ %.pre, %ctype_rawchild.exit ], [ %17, %16 ]
  %47 = load ptr, ptr %6, align 8, !tbaa !45
  %48 = getelementptr inbounds nuw i8, ptr %47, i64 408
  %49 = call fastcc i32 @crec_ct_tv(ptr noundef %0, ptr noundef nonnull %48, i32 noundef 0, i32 noundef %9, ptr noundef %46)
  %50 = load ptr, ptr %1, align 8, !tbaa !28
  %51 = getelementptr inbounds nuw i8, ptr %50, i64 8
  %.val42 = load ptr, ptr %6, align 8, !tbaa !45
  %52 = getelementptr inbounds nuw i8, ptr %.val42, i64 216
  %53 = call fastcc i32 @crec_ct_tv(ptr noundef %0, ptr noundef nonnull %52, i32 noundef 0, i32 noundef %11, ptr noundef nonnull readonly %51)
  %.not = icmp eq i32 %13, 0
  br i1 %.not, label %59, label %54

54:                                               ; preds = %45
  %55 = load ptr, ptr %1, align 8, !tbaa !28
  %56 = getelementptr inbounds nuw i8, ptr %55, i64 16
  %.val = load ptr, ptr %6, align 8, !tbaa !45
  %57 = getelementptr inbounds nuw i8, ptr %.val, i64 216
  %58 = call fastcc i32 @crec_ct_tv(ptr noundef %0, ptr noundef nonnull %57, i32 noundef 0, i32 noundef %13, ptr noundef nonnull readonly %56)
  br label %61

59:                                               ; preds = %45
  %60 = call i32 @lj_ir_kint(ptr noundef %0, i32 noundef 0) #8
  br label %61

61:                                               ; preds = %59, %54
  %.036 = phi i32 [ %58, %54 ], [ %60, %59 ]
  %62 = getelementptr inbounds nuw i8, ptr %1, i64 8
  store i64 0, ptr %62, align 8, !tbaa !65
  call fastcc void @crec_fill(ptr noundef %0, i32 noundef %49, i32 noundef %53, i32 noundef %.036)
  br label %63

63:                                               ; preds = %61, %2
  ret void
}